target datalayout = "e-m:e-p270:32:32-p271:32:32-p272:64:64-i64:64-i128:128-f80:128-n8:16:32:64-S128"
target triple = "x86_64-pc-linux-gnu"

%struct.lean_object = type { i32, i32 }
%struct.lean_ctor_object = type { %struct.lean_object, [0 x ptr] }

; Function Attrs: inlinehint nounwind uwtable
define internal ptr @lean_to_ctor(ptr noundef %0) #0 {
  %2 = alloca ptr, align 8
  store ptr %0, ptr %2, align 8, !tbaa !4
  %3 = load ptr, ptr %2, align 8, !tbaa !4
  ret ptr %3
}

; Function Attrs: inlinehint nounwind uwtable
define internal ptr @lean_ctor_obj_cptr(ptr noundef %0) #0 {
  %2 = alloca ptr, align 8
  store ptr %0, ptr %2, align 8, !tbaa !4
  %3 = load ptr, ptr %2, align 8, !tbaa !4
  %4 = call ptr @lean_to_ctor(ptr noundef %3)
  %5 = getelementptr inbounds nuw %struct.lean_ctor_object, ptr %4, i32 0, i32 1
  %6 = getelementptr inbounds [0 x ptr], ptr %5, i64 0, i64 0
  ret ptr %6
}

; Function Attrs: alwaysinline nounwind uwtable
define internal void @lean_dec_ref(ptr noundef %0) #1 {
  %2 = alloca ptr, align 8
  store ptr %0, ptr %2, align 8, !tbaa !4
  %3 = load ptr, ptr %2, align 8, !tbaa !4
  %4 = getelementptr inbounds nuw %struct.lean_object, ptr %3, i32 0, i32 0
  %5 = load i32, ptr %4, align 4, !tbaa !17
  %6 = icmp sgt i32 %5, 1
  %7 = zext i1 %6 to i32
  %8 = sext i32 %7 to i64
  %9 = call i64 @llvm.expect.i64(i64 %8, i64 1)
  %10 = icmp ne i64 %9, 0
  br i1 %10, label %11, label %16

11:                                               ; preds = %1
  %12 = load ptr, ptr %2, align 8, !tbaa !4
  %13 = getelementptr inbounds nuw %struct.lean_object, ptr %12, i32 0, i32 0
  %14 = load i32, ptr %13, align 4, !tbaa !17
  %15 = add i32 %14, -1
  store i32 %15, ptr %13, align 4, !tbaa !17
  br label %24

16:                                               ; preds = %1
  %17 = load ptr, ptr %2, align 8, !tbaa !4
  %18 = getelementptr inbounds nuw %struct.lean_object, ptr %17, i32 0, i32 0
  %19 = load i32, ptr %18, align 4, !tbaa !17
  %20 = icmp ne i32 %19, 0
  br i1 %20, label %21, label %23

21:                                               ; preds = %16
  %22 = load ptr, ptr %2, align 8, !tbaa !4
  call void @lean_dec_ref_cold(ptr noundef %22)
  br label %23

23:                                               ; preds = %21, %16
  br label %24

24:                                               ; preds = %23, %11
  ret void
}

; Function Attrs: inlinehint nounwind uwtable
define internal zeroext i8 @lean_ptr_tag(ptr noundef %0) #0 {
  %2 = alloca ptr, align 8
  store ptr %0, ptr %2, align 8, !tbaa !4
  %3 = load ptr, ptr %2, align 8, !tbaa !4
  %4 = getelementptr inbounds nuw %struct.lean_object, ptr %3, i32 0, i32 1
  %5 = load i32, ptr %4, align 4
  %6 = lshr i32 %5, 24
  %7 = trunc i32 %6 to i8
  ret i8 %7
}

; Function Attrs: inlinehint nounwind uwtable
define internal i64 @lean_unbox(ptr noundef %0) #0 {
  %2 = alloca ptr, align 8
  store ptr %0, ptr %2, align 8, !tbaa !4
  %3 = load ptr, ptr %2, align 8, !tbaa !4
  %4 = ptrtoint ptr %3 to i64
  %5 = lshr i64 %4, 1
  ret i64 %5
}

; Function Attrs: alwaysinline nounwind uwtable
define internal zeroext i1 @lean_is_scalar(ptr noundef %0) #1 {
  %2 = alloca ptr, align 8
  store ptr %0, ptr %2, align 8, !tbaa !4
  %3 = load ptr, ptr %2, align 8, !tbaa !4
  %4 = ptrtoint ptr %3 to i64
  %5 = and i64 %4, 1
  %6 = icmp eq i64 %5, 1
  ret i1 %6
}

; Function Attrs: inlinehint nounwind uwtable
define internal ptr @lean_ctor_get(ptr noundef %0, i32 noundef %1) #0 {
  %3 = alloca ptr, align 8
  %4 = alloca i32, align 4
  store ptr %0, ptr %3, align 8, !tbaa !4
  store i32 %1, ptr %4, align 4, !tbaa !10
  %5 = load ptr, ptr %3, align 8, !tbaa !4
  %6 = call ptr @lean_ctor_obj_cptr(ptr noundef %5)
  %7 = load i32, ptr %4, align 4, !tbaa !10
  %8 = zext i32 %7 to i64
  %9 = getelementptr inbounds nuw ptr, ptr %6, i64 %8
  %10 = load ptr, ptr %9, align 8, !tbaa !4
  ret ptr %10
}

; Function Attrs: alwaysinline nounwind uwtable
define internal void @lean_dec(ptr noundef %0) #1 {
  %2 = alloca ptr, align 8
  store ptr %0, ptr %2, align 8, !tbaa !4
  %3 = load ptr, ptr %2, align 8, !tbaa !4
  %4 = call zeroext i1 @lean_is_scalar(ptr noundef %3)
  br i1 %4, label %7, label %5

5:                                                ; preds = %1
  %6 = load ptr, ptr %2, align 8, !tbaa !4
  call void @lean_dec_ref(ptr noundef %6)
  br label %7

7:                                                ; preds = %5, %1
  ret void
}

; Function Attrs: inlinehint nounwind uwtable
define internal i32 @lean_obj_tag(ptr noundef %0) #0 {
  %2 = alloca i32, align 4
  %3 = alloca ptr, align 8
  store ptr %0, ptr %3, align 8, !tbaa !4
  %4 = load ptr, ptr %3, align 8, !tbaa !4
  %5 = call zeroext i1 @lean_is_scalar(ptr noundef %4)
  br i1 %5, label %6, label %10

6:                                                ; preds = %1
  %7 = load ptr, ptr %3, align 8, !tbaa !4
  %8 = call i64 @lean_unbox(ptr noundef %7)
  %9 = trunc i64 %8 to i32
  store i32 %9, ptr %2, align 4
  br label %14

10:                                               ; preds = %1
  %11 = load ptr, ptr %3, align 8, !tbaa !4
  %12 = call zeroext i8 @lean_ptr_tag(ptr noundef %11)
  %13 = zext i8 %12 to i32
  store i32 %13, ptr %2, align 4
  br label %14

14:                                               ; preds = %10, %6
  %15 = load i32, ptr %2, align 4
  ret i32 %15
}

; Function Attrs: inlinehint nounwind uwtable
define internal ptr @lean_box(i64 noundef %0) #0 {
  %2 = alloca i64, align 8
  store i64 %0, ptr %2, align 8, !tbaa !12
  %3 = load i64, ptr %2, align 8, !tbaa !12
  %4 = shl i64 %3, 1
  %5 = or i64 %4, 1
  %6 = inttoptr i64 %5 to ptr
  ret ptr %6
}

; Function Attrs: nounwind uwtable
define zeroext i8 @l_Lean_FuzzyMatching_charRole(ptr noundef %0, i8 noundef zeroext %1, ptr noundef %2) #2 {
  %4 = alloca i8, align 1
  %5 = alloca ptr, align 8
  %6 = alloca i8, align 1
  %7 = alloca ptr, align 8
  %8 = alloca ptr, align 8
  %9 = alloca ptr, align 8
  %10 = alloca ptr, align 8
  %11 = alloca i8, align 1
  %12 = alloca i32, align 4
  %13 = alloca ptr, align 8
  %14 = alloca i8, align 1
  %15 = alloca ptr, align 8
  %16 = alloca i8, align 1
  %17 = alloca ptr, align 8
  %18 = alloca i8, align 1
  %19 = alloca i8, align 1
  %20 = alloca i8, align 1
  %21 = alloca i8, align 1
  %22 = alloca ptr, align 8
  %23 = alloca i8, align 1
  %24 = alloca ptr, align 8
  %25 = alloca i8, align 1
  %26 = alloca ptr, align 8
  store ptr %0, ptr %5, align 8, !tbaa !4
  store i8 %1, ptr %6, align 1, !tbaa !14
  store ptr %2, ptr %7, align 8, !tbaa !4
  br label %27

27:                                               ; preds = %3
  call void @llvm.lifetime.start.p0(i64 8, ptr %8) #8
  call void @llvm.lifetime.start.p0(i64 8, ptr %9) #8
  call void @llvm.lifetime.start.p0(i64 8, ptr %10) #8
  %28 = load i8, ptr %6, align 1, !tbaa !14
  %29 = zext i8 %28 to i64
  %30 = call ptr @lean_box(i64 noundef %29)
  store ptr %30, ptr %10, align 8, !tbaa !4
  %31 = load ptr, ptr %10, align 8, !tbaa !4
  %32 = call i32 @lean_obj_tag(ptr noundef %31)
  %33 = icmp eq i32 %32, 2
  br i1 %33, label %34, label %36

34:                                               ; preds = %27
  call void @llvm.lifetime.start.p0(i64 1, ptr %11) #8
  store i8 2, ptr %11, align 1, !tbaa !14
  %35 = load i8, ptr %11, align 1, !tbaa !14
  store i8 %35, ptr %4, align 1
  store i32 1, ptr %12, align 4
  call void @llvm.lifetime.end.p0(i64 1, ptr %11) #8
  br label %105

36:                                               ; preds = %27
  call void @llvm.lifetime.start.p0(i64 8, ptr %13) #8
  %37 = load ptr, ptr %10, align 8, !tbaa !4
  call void @lean_dec(ptr noundef %37)
  %38 = call ptr @lean_box(i64 noundef 0)
  store ptr %38, ptr %13, align 8, !tbaa !4
  %39 = load ptr, ptr %13, align 8, !tbaa !4
  store ptr %39, ptr %9, align 8, !tbaa !4
  store i32 3, ptr %12, align 4
  call void @llvm.lifetime.end.p0(i64 8, ptr %13) #8
  %40 = load i32, ptr %12, align 4
  switch i32 %40, label %105 [
    i32 3, label %74
  ]

41:                                               ; preds = %103
  %42 = load ptr, ptr %8, align 8, !tbaa !4
  call void @lean_dec(ptr noundef %42)
  %43 = load ptr, ptr %5, align 8, !tbaa !4
  %44 = call i32 @lean_obj_tag(ptr noundef %43)
  %45 = icmp eq i32 %44, 0
  br i1 %45, label %46, label %48

46:                                               ; preds = %41
  call void @llvm.lifetime.start.p0(i64 1, ptr %14) #8
  store i8 0, ptr %14, align 1, !tbaa !14
  %47 = load i8, ptr %14, align 1, !tbaa !14
  store i8 %47, ptr %4, align 1
  store i32 1, ptr %12, align 4
  call void @llvm.lifetime.end.p0(i64 1, ptr %14) #8
  br label %105

48:                                               ; preds = %41
  call void @llvm.lifetime.start.p0(i64 8, ptr %15) #8
  %49 = load ptr, ptr %5, align 8, !tbaa !4
  %50 = call ptr @lean_ctor_get(ptr noundef %49, i32 noundef 0)
  store ptr %50, ptr %15, align 8, !tbaa !4
  %51 = load ptr, ptr %15, align 8, !tbaa !4
  %52 = call i32 @lean_obj_tag(ptr noundef %51)
  %53 = icmp eq i32 %52, 1
  br i1 %53, label %54, label %71

54:                                               ; preds = %48
  %55 = load ptr, ptr %7, align 8, !tbaa !4
  %56 = call i32 @lean_obj_tag(ptr noundef %55)
  %57 = icmp eq i32 %56, 0
  br i1 %57, label %58, label %60

58:                                               ; preds = %54
  call void @llvm.lifetime.start.p0(i64 1, ptr %16) #8
  store i8 1, ptr %16, align 1, !tbaa !14
  %59 = load i8, ptr %16, align 1, !tbaa !14
  store i8 %59, ptr %4, align 1
  store i32 1, ptr %12, align 4
  call void @llvm.lifetime.end.p0(i64 1, ptr %16) #8
  br label %73

60:                                               ; preds = %54
  call void @llvm.lifetime.start.p0(i64 8, ptr %17) #8
  %61 = load ptr, ptr %7, align 8, !tbaa !4
  %62 = call ptr @lean_ctor_get(ptr noundef %61, i32 noundef 0)
  store ptr %62, ptr %17, align 8, !tbaa !4
  %63 = load ptr, ptr %17, align 8, !tbaa !4
  %64 = call i32 @lean_obj_tag(ptr noundef %63)
  %65 = icmp eq i32 %64, 0
  br i1 %65, label %66, label %68

66:                                               ; preds = %60
  call void @llvm.lifetime.start.p0(i64 1, ptr %18) #8
  store i8 0, ptr %18, align 1, !tbaa !14
  %67 = load i8, ptr %18, align 1, !tbaa !14
  store i8 %67, ptr %4, align 1
  store i32 1, ptr %12, align 4
  call void @llvm.lifetime.end.p0(i64 1, ptr %18) #8
  br label %70

68:                                               ; preds = %60
  call void @llvm.lifetime.start.p0(i64 1, ptr %19) #8
  store i8 1, ptr %19, align 1, !tbaa !14
  %69 = load i8, ptr %19, align 1, !tbaa !14
  store i8 %69, ptr %4, align 1
  store i32 1, ptr %12, align 4
  call void @llvm.lifetime.end.p0(i64 1, ptr %19) #8
  br label %70

70:                                               ; preds = %68, %66
  call void @llvm.lifetime.end.p0(i64 8, ptr %17) #8
  br label %73

71:                                               ; preds = %48
  call void @llvm.lifetime.start.p0(i64 1, ptr %20) #8
  store i8 0, ptr %20, align 1, !tbaa !14
  %72 = load i8, ptr %20, align 1, !tbaa !14
  store i8 %72, ptr %4, align 1
  store i32 1, ptr %12, align 4
  call void @llvm.lifetime.end.p0(i64 1, ptr %20) #8
  br label %73

73:                                               ; preds = %71, %70, %58
  call void @llvm.lifetime.end.p0(i64 8, ptr %15) #8
  br label %105

74:                                               ; preds = %36
  %75 = load ptr, ptr %9, align 8, !tbaa !4
  call void @lean_dec(ptr noundef %75)
  %76 = load ptr, ptr %5, align 8, !tbaa !4
  %77 = call i32 @lean_obj_tag(ptr noundef %76)
  %78 = icmp eq i32 %77, 0
  br i1 %78, label %79, label %81

79:                                               ; preds = %74
  call void @llvm.lifetime.start.p0(i64 1, ptr %21) #8
  store i8 0, ptr %21, align 1, !tbaa !14
  %80 = load i8, ptr %21, align 1, !tbaa !14
  store i8 %80, ptr %4, align 1
  store i32 1, ptr %12, align 4
  call void @llvm.lifetime.end.p0(i64 1, ptr %21) #8
  br label %105

81:                                               ; preds = %74
  call void @llvm.lifetime.start.p0(i64 8, ptr %22) #8
  %82 = load ptr, ptr %5, align 8, !tbaa !4
  %83 = call ptr @lean_ctor_get(ptr noundef %82, i32 noundef 0)
  store ptr %83, ptr %22, align 8, !tbaa !4
  %84 = load ptr, ptr %22, align 8, !tbaa !4
  %85 = call i32 @lean_obj_tag(ptr noundef %84)
  %86 = icmp eq i32 %85, 2
  br i1 %86, label %87, label %89

87:                                               ; preds = %81
  call void @llvm.lifetime.start.p0(i64 1, ptr %23) #8
  store i8 0, ptr %23, align 1, !tbaa !14
  %88 = load i8, ptr %23, align 1, !tbaa !14
  store i8 %88, ptr %4, align 1
  store i32 1, ptr %12, align 4
  call void @llvm.lifetime.end.p0(i64 1, ptr %23) #8
  br label %103

89:                                               ; preds = %81
  call void @llvm.lifetime.start.p0(i64 8, ptr %24) #8
  %90 = load i8, ptr %6, align 1, !tbaa !14
  %91 = zext i8 %90 to i64
  %92 = call ptr @lean_box(i64 noundef %91)
  store ptr %92, ptr %24, align 8, !tbaa !4
  %93 = load ptr, ptr %24, align 8, !tbaa !4
  %94 = call i32 @lean_obj_tag(ptr noundef %93)
  %95 = icmp eq i32 %94, 0
  br i1 %95, label %96, label %98

96:                                               ; preds = %89
  call void @llvm.lifetime.start.p0(i64 1, ptr %25) #8
  store i8 1, ptr %25, align 1, !tbaa !14
  %97 = load i8, ptr %25, align 1, !tbaa !14
  store i8 %97, ptr %4, align 1
  store i32 1, ptr %12, align 4
  call void @llvm.lifetime.end.p0(i64 1, ptr %25) #8
  br label %102

98:                                               ; preds = %89
  call void @llvm.lifetime.start.p0(i64 8, ptr %26) #8
  %99 = load ptr, ptr %24, align 8, !tbaa !4
  call void @lean_dec(ptr noundef %99)
  %100 = call ptr @lean_box(i64 noundef 0)
  store ptr %100, ptr %26, align 8, !tbaa !4
  %101 = load ptr, ptr %26, align 8, !tbaa !4
  store ptr %101, ptr %8, align 8, !tbaa !4
  store i32 4, ptr %12, align 4
  call void @llvm.lifetime.end.p0(i64 8, ptr %26) #8
  br label %102

102:                                              ; preds = %98, %96
  call void @llvm.lifetime.end.p0(i64 8, ptr %24) #8
  br label %103

103:                                              ; preds = %102, %87
  call void @llvm.lifetime.end.p0(i64 8, ptr %22) #8
  %104 = load i32, ptr %12, align 4
  switch i32 %104, label %105 [
    i32 4, label %41
  ]

105:                                              ; preds = %103, %79, %36, %73, %46, %34
  call void @llvm.lifetime.end.p0(i64 8, ptr %10) #8
  call void @llvm.lifetime.end.p0(i64 8, ptr %9) #8
  call void @llvm.lifetime.end.p0(i64 8, ptr %8) #8
  %106 = load i8, ptr %4, align 1
  ret i8 %106
}