; Function Attrs: mustprogress nofree norecurse nosync nounwind willreturn memory(read, inaccessiblemem: none) uwtable
define zeroext range(i8 0, 3) i8 @l_Lean_FuzzyMatching_charRole(ptr noundef %0, i8 noundef zeroext %1, ptr noundef %2) local_unnamed_addr #4 {
  %4 = icmp eq i8 %1, 2
  br i1 %4, label %.thread, label %lean_dec.exit35

lean_dec.exit35:                                  ; preds = %3
  %5 = ptrtoint ptr %0 to i64
  %6 = and i64 %5, 1
  %.not.i45 = icmp eq i64 %6, 0
  br i1 %.not.i45, label %10, label %7

7:                                                ; preds = %lean_dec.exit35
  %8 = lshr i64 %5, 1
  %9 = trunc i64 %8 to i32
  br label %lean_obj_tag.exit

10:                                               ; preds = %lean_dec.exit35
  %11 = getelementptr i8, ptr %0, i64 4
  %.val.i = load i32, ptr %11, align 4
  %12 = lshr i32 %.val.i, 24
  br label %lean_obj_tag.exit

lean_obj_tag.exit:                                ; preds = %7, %10
  %.0.i = phi i32 [ %9, %7 ], [ %12, %10 ]
  %13 = icmp eq i32 %.0.i, 0
  br i1 %13, label %.thread, label %51

lean_dec.exit36:                                  ; preds = %63
  br i1 %.not.i45, label %17, label %14

14:                                               ; preds = %lean_dec.exit36
  %15 = lshr i64 %5, 1
  %16 = trunc i64 %15 to i32
  br label %lean_obj_tag.exit49

17:                                               ; preds = %lean_dec.exit36
  %18 = getelementptr i8, ptr %0, i64 4
  %.val.i48 = load i32, ptr %18, align 4
  %19 = lshr i32 %.val.i48, 24
  br label %lean_obj_tag.exit49

lean_obj_tag.exit49:                              ; preds = %14, %17
  %.0.i47 = phi i32 [ %16, %14 ], [ %19, %17 ]
  %20 = icmp eq i32 %.0.i47, 0
  br i1 %20, label %.thread, label %21

21:                                               ; preds = %lean_obj_tag.exit49
  br i1 %.not.i62, label %25, label %22

22:                                               ; preds = %21
  %23 = lshr i64 %54, 1
  %24 = trunc i64 %23 to i32
  br label %lean_obj_tag.exit53

25:                                               ; preds = %21
  %26 = getelementptr i8, ptr %53, i64 4
  %.val.i52 = load i32, ptr %26, align 4
  %27 = lshr i32 %.val.i52, 24
  br label %lean_obj_tag.exit53

lean_obj_tag.exit53:                              ; preds = %22, %25
  %.0.i51 = phi i32 [ %24, %22 ], [ %27, %25 ]
  %28 = icmp eq i32 %.0.i51, 1
  br i1 %28, label %29, label %.thread

29:                                               ; preds = %lean_obj_tag.exit53
  %30 = ptrtoint ptr %2 to i64
  %31 = and i64 %30, 1
  %.not.i54 = icmp eq i64 %31, 0
  br i1 %.not.i54, label %35, label %32

32:                                               ; preds = %29
  %33 = lshr i64 %30, 1
  %34 = trunc i64 %33 to i32
  br label %lean_obj_tag.exit57

35:                                               ; preds = %29
  %36 = getelementptr i8, ptr %2, i64 4
  %.val.i56 = load i32, ptr %36, align 4
  %37 = lshr i32 %.val.i56, 24
  br label %lean_obj_tag.exit57

lean_obj_tag.exit57:                              ; preds = %32, %35
  %.0.i55 = phi i32 [ %34, %32 ], [ %37, %35 ]
  %38 = icmp eq i32 %.0.i55, 0
  br i1 %38, label %.thread, label %39

39:                                               ; preds = %lean_obj_tag.exit57
  %40 = getelementptr inbounds nuw i8, ptr %2, i64 8
  %41 = load ptr, ptr %40, align 8, !tbaa !11
  %42 = ptrtoint ptr %41 to i64
  %43 = and i64 %42, 1
  %.not.i58 = icmp eq i64 %43, 0
  br i1 %.not.i58, label %47, label %44

44:                                               ; preds = %39
  %45 = lshr i64 %42, 1
  %46 = trunc i64 %45 to i32
  br label %lean_obj_tag.exit61

47:                                               ; preds = %39
  %48 = getelementptr i8, ptr %41, i64 4
  %.val.i60 = load i32, ptr %48, align 4
  %49 = lshr i32 %.val.i60, 24
  br label %lean_obj_tag.exit61

lean_obj_tag.exit61:                              ; preds = %44, %47
  %.0.i59 = phi i32 [ %46, %44 ], [ %49, %47 ]
  %50 = icmp ne i32 %.0.i59, 0
  %. = zext i1 %50 to i8
  br label %.thread

51:                                               ; preds = %lean_obj_tag.exit
  %52 = getelementptr inbounds nuw i8, ptr %0, i64 8
  %53 = load ptr, ptr %52, align 8, !tbaa !11
  %54 = ptrtoint ptr %53 to i64
  %55 = and i64 %54, 1
  %.not.i62 = icmp eq i64 %55, 0
  br i1 %.not.i62, label %59, label %56

56:                                               ; preds = %51
  %57 = lshr i64 %54, 1
  %58 = trunc i64 %57 to i32
  br label %lean_obj_tag.exit65

59:                                               ; preds = %51
  %60 = getelementptr i8, ptr %53, i64 4
  %.val.i64 = load i32, ptr %60, align 4
  %61 = lshr i32 %.val.i64, 24
  br label %lean_obj_tag.exit65

lean_obj_tag.exit65:                              ; preds = %56, %59
  %.0.i63 = phi i32 [ %58, %56 ], [ %61, %59 ]
  %62 = icmp eq i32 %.0.i63, 2
  br i1 %62, label %.thread, label %63

63:                                               ; preds = %lean_obj_tag.exit65
  %.not = icmp eq i8 %1, 0
  br i1 %.not, label %.thread, label %lean_dec.exit36

.thread:                                          ; preds = %63, %lean_obj_tag.exit65, %lean_obj_tag.exit, %lean_obj_tag.exit61, %lean_obj_tag.exit57, %lean_obj_tag.exit53, %lean_obj_tag.exit49, %3
  %.0 = phi i8 [ 2, %3 ], [ 0, %lean_obj_tag.exit49 ], [ %., %lean_obj_tag.exit61 ], [ 1, %lean_obj_tag.exit57 ], [ 0, %lean_obj_tag.exit53 ], [ 0, %lean_obj_tag.exit ], [ 1, %63 ], [ 0, %lean_obj_tag.exit65 ]
  ret i8 %.0
}